target datalayout = "e-m:e-p270:32:32-p271:32:32-p272:64:64-i64:64-i128:128-f80:128-n8:16:32:64-S128"
target triple = "x86_64-pc-linux-gnu"

%struct._GString = type { ptr, i64, i64 }
%struct.sysinfo = type { i64, [3 x i64], i64, i64, i64, i64, i64, i64, i16, i16, i64, i64, i32, [0 x i8] }

@.str.11 = private unnamed_addr constant [2 x i8] c"\0A\00", align 1
@.str.12 = private unnamed_addr constant [8 x i8] c" With:\0A\00", align 1
@.str.13 = private unnamed_addr constant [11 x i8] c" Without:\0A\00", align 1
@.str.17 = private unnamed_addr constant [25 x i8] c"Runtime info:\0A      OS: \00", align 1
@.str.18 = private unnamed_addr constant [12 x i8] c"\0A     CPU: \00", align 1
@.str.19 = private unnamed_addr constant [12 x i8] c"\0A  Memory: \00", align 1
@.str.20 = private unnamed_addr constant [21 x i8] c"\0A    GLib: %u.%u.%u\0A\00", align 1
@glib_major_version = external constant i32, align 4
@glib_minor_version = external constant i32, align 4
@glib_micro_version = external constant i32, align 4
@.str.21 = private unnamed_addr constant [22 x i8] c"  Locale: LC_TYPE=%s\0A\00", align 1
@.str.22 = private unnamed_addr constant [32 x i8] c" Plugins: supported, %d loaded\0A\00", align 1
@.str.23 = private unnamed_addr constant [37 x i8] c" Plugins: not supported by platform\0A\00", align 1
@.str.39 = private unnamed_addr constant [26 x i8] c"%li MB of physical memory\00", align 1

; Function Attrs: null_pointer_is_valid sspstrong uwtable
define internal void @end_string(ptr noundef %0) #0 {
  %2 = alloca ptr, align 8
  %3 = alloca i64, align 8
  %4 = alloca ptr, align 8
  %5 = alloca ptr, align 8
  store ptr %0, ptr %2, align 8
  call void @llvm.lifetime.start.p0(i64 8, ptr %3) #8
  call void @llvm.lifetime.start.p0(i64 8, ptr %4) #8
  call void @llvm.lifetime.start.p0(i64 8, ptr %5) #8
  %6 = load ptr, ptr %2, align 8
  %7 = getelementptr inbounds nuw %struct._GString, ptr %6, i32 0, i32 1
  %8 = load i64, ptr %7, align 8
  store i64 %8, ptr %3, align 8
  %9 = load i64, ptr %3, align 8
  %10 = icmp eq i64 %9, 0
  br i1 %10, label %21, label %11

11:                                               ; preds = %1
  %12 = load ptr, ptr %2, align 8
  %13 = getelementptr inbounds nuw %struct._GString, ptr %12, i32 0, i32 0
  %14 = load ptr, ptr %13, align 8
  %15 = load i64, ptr %3, align 8
  %16 = sub i64 %15, 1
  %17 = getelementptr i8, ptr %14, i64 %16
  %18 = load i8, ptr %17, align 1
  %19 = sext i8 %18 to i32
  %20 = icmp ne i32 %19, 10
  br i1 %20, label %21, label %24

21:                                               ; preds = %11, %1
  %22 = load ptr, ptr %2, align 8
  %23 = call ptr @g_string_append(ptr noundef %22, ptr noundef @.str.11)
  br label %24

24:                                               ; preds = %21, %11
  %25 = load ptr, ptr %2, align 8
  %26 = getelementptr inbounds nuw %struct._GString, ptr %25, i32 0, i32 0
  %27 = load ptr, ptr %26, align 8
  store ptr %27, ptr %4, align 8
  br label %28

28:                                               ; preds = %66, %24
  %29 = load ptr, ptr %4, align 8
  %30 = load i8, ptr %29, align 1
  %31 = sext i8 %30 to i32
  %32 = icmp ne i32 %31, 0
  br i1 %32, label %33, label %69

33:                                               ; preds = %28
  %34 = load ptr, ptr %4, align 8
  %35 = call ptr @strchr(ptr noundef %34, i32 noundef 10) #9
  store ptr %35, ptr %5, align 8
  %36 = load ptr, ptr %5, align 8
  %37 = load ptr, ptr %4, align 8
  %38 = ptrtoint ptr %36 to i64
  %39 = ptrtoint ptr %37 to i64
  %40 = sub i64 %38, %39
  %41 = icmp sgt i64 %40, 80
  br i1 %41, label %42, label %66

42:                                               ; preds = %33
  %43 = load ptr, ptr %4, align 8
  %44 = getelementptr i8, ptr %43, i64 80
  store ptr %44, ptr %5, align 8
  br label %45

45:                                               ; preds = %56, %42
  %46 = load ptr, ptr %5, align 8
  %47 = load ptr, ptr %4, align 8
  %48 = icmp ugt ptr %46, %47
  br i1 %48, label %49, label %54

49:                                               ; preds = %45
  %50 = load ptr, ptr %5, align 8
  %51 = load i8, ptr %50, align 1
  %52 = sext i8 %51 to i32
  %53 = icmp ne i32 %52, 32
  br label %54

54:                                               ; preds = %49, %45
  %55 = phi i1 [ false, %45 ], [ %53, %49 ]
  br i1 %55, label %56, label %59

56:                                               ; preds = %54
  %57 = load ptr, ptr %5, align 8
  %58 = getelementptr i8, ptr %57, i32 -1
  store ptr %58, ptr %5, align 8
  br label %45, !llvm.loop !6

59:                                               ; preds = %54
  %60 = load ptr, ptr %5, align 8
  %61 = load ptr, ptr %4, align 8
  %62 = icmp ne ptr %60, %61
  br i1 %62, label %63, label %65

63:                                               ; preds = %59
  %64 = load ptr, ptr %5, align 8
  store i8 10, ptr %64, align 1
  br label %65

65:                                               ; preds = %63, %59
  br label %66

66:                                               ; preds = %65, %33
  %67 = load ptr, ptr %5, align 8
  %68 = getelementptr i8, ptr %67, i64 1
  store ptr %68, ptr %4, align 8
  br label %28, !llvm.loop !8

69:                                               ; preds = %28
  call void @llvm.lifetime.end.p0(i64 8, ptr %5) #8
  call void @llvm.lifetime.end.p0(i64 8, ptr %4) #8
  call void @llvm.lifetime.end.p0(i64 8, ptr %3) #8
  ret void
}

; Function Attrs: null_pointer_is_valid sspstrong uwtable
define internal void @get_mem_info(ptr noundef %0) #0 {
  %2 = alloca ptr, align 8
  %3 = alloca i64, align 8
  %4 = alloca %struct.sysinfo, align 8
  store ptr %0, ptr %2, align 8
  call void @llvm.lifetime.start.p0(i64 8, ptr %3) #8
  store i64 0, ptr %3, align 8
  call void @llvm.lifetime.start.p0(i64 112, ptr %4) #8
  %5 = call i32 @sysinfo(ptr noundef %4) #8
  %6 = icmp eq i32 %5, 0
  br i1 %6, label %7, label %14

7:                                                ; preds = %1
  %8 = getelementptr inbounds nuw %struct.sysinfo, ptr %4, i32 0, i32 2
  %9 = load i64, ptr %8, align 8
  %10 = getelementptr inbounds nuw %struct.sysinfo, ptr %4, i32 0, i32 12
  %11 = load i32, ptr %10, align 8
  %12 = zext i32 %11 to i64
  %13 = mul i64 %9, %12
  store i64 %13, ptr %3, align 8
  br label %14

14:                                               ; preds = %7, %1
  %15 = load i64, ptr %3, align 8
  %16 = icmp sgt i64 %15, 0
  br i1 %16, label %17, label %21

17:                                               ; preds = %14
  %18 = load ptr, ptr %2, align 8
  %19 = load i64, ptr %3, align 8
  %20 = sdiv i64 %19, 1048576
  call void (ptr, ptr, ...) @g_string_append_printf(ptr noundef %18, ptr noundef @.str.39, i64 noundef %20)
  br label %21

21:                                               ; preds = %17, %14
  call void @llvm.lifetime.end.p0(i64 112, ptr %4) #8
  call void @llvm.lifetime.end.p0(i64 8, ptr %3) #8
  ret void
}

; Function Attrs: null_pointer_is_valid sspstrong uwtable
define ptr @get_runtime_version_info(ptr noundef %0) #0 {
  %2 = alloca ptr, align 8
  %3 = alloca ptr, align 8
  %4 = alloca ptr, align 8
  %5 = alloca ptr, align 8
  %6 = alloca ptr, align 8
  %7 = alloca ptr, align 8
  store ptr %0, ptr %2, align 8
  call void @llvm.lifetime.start.p0(i64 8, ptr %3) #8
  call void @llvm.lifetime.start.p0(i64 8, ptr %4) #8
  call void @llvm.lifetime.start.p0(i64 8, ptr %5) #8
  store ptr null, ptr %5, align 8
  call void @llvm.lifetime.start.p0(i64 8, ptr %6) #8
  store ptr null, ptr %6, align 8
  call void @llvm.lifetime.start.p0(i64 8, ptr %7) #8
  store ptr null, ptr %7, align 8
  %8 = call ptr @g_string_new(ptr noundef @.str.17)
  store ptr %8, ptr %3, align 8
  %9 = load ptr, ptr %3, align 8
  call void @get_os_version_info(ptr noundef %9)
  %10 = load ptr, ptr %3, align 8
  %11 = call ptr @g_string_append(ptr noundef %10, ptr noundef @.str.18)
  %12 = load ptr, ptr %3, align 8
  call void @get_cpu_info(ptr noundef %12)
  %13 = load ptr, ptr %3, align 8
  %14 = call ptr @g_string_append(ptr noundef %13, ptr noundef @.str.19)
  %15 = load ptr, ptr %3, align 8
  call void @get_mem_info(ptr noundef %15)
  %16 = load ptr, ptr %3, align 8
  %17 = load i32, ptr @glib_major_version, align 4
  %18 = load i32, ptr @glib_minor_version, align 4
  %19 = load i32, ptr @glib_micro_version, align 4
  call void (ptr, ptr, ...) @g_string_append_printf(ptr noundef %16, ptr noundef @.str.20, i32 noundef %17, i32 noundef %18, i32 noundef %19)
  %20 = call ptr @setlocale(i32 noundef 0, ptr noundef null) #8
  store ptr %20, ptr %4, align 8
  %21 = icmp ne ptr %20, null
  br i1 %21, label %22, label %25

22:                                               ; preds = %1
  %23 = load ptr, ptr %3, align 8
  %24 = load ptr, ptr %4, align 8
  call void (ptr, ptr, ...) @g_string_append_printf(ptr noundef %23, ptr noundef @.str.21, ptr noundef %24)
  br label %25

25:                                               ; preds = %22, %1
  %26 = call i32 @g_module_supported() #10
  %27 = icmp ne i32 %26, 0
  br i1 %27, label %28, label %31

28:                                               ; preds = %25
  %29 = load ptr, ptr %3, align 8
  %30 = call i32 @plugins_get_count()
  call void (ptr, ptr, ...) @g_string_append_printf(ptr noundef %29, ptr noundef @.str.22, i32 noundef %30)
  br label %34

31:                                               ; preds = %25
  %32 = load ptr, ptr %3, align 8
  %33 = call ptr @g_string_append(ptr noundef %32, ptr noundef @.str.23)
  br label %34

34:                                               ; preds = %31, %28
  %35 = load ptr, ptr %2, align 8
  %36 = icmp ne ptr %35, null
  br i1 %36, label %37, label %39

37:                                               ; preds = %34
  %38 = load ptr, ptr %2, align 8
  call void %38(ptr noundef %5)
  br label %39

39:                                               ; preds = %37, %34
  call void @sort_features(ptr noundef %5)
  call void @separate_features(ptr noundef %5, ptr noundef %6, ptr noundef %7)
  call void @free_features(ptr noundef %5)
  %40 = load ptr, ptr %3, align 8
  %41 = call ptr @g_string_append(ptr noundef %40, ptr noundef @.str.12)
  %42 = load ptr, ptr %3, align 8
  call void @features_to_columns(ptr noundef %6, ptr noundef %42)
  call void @free_features(ptr noundef %6)
  %43 = load ptr, ptr %7, align 8
  %44 = icmp ne ptr %43, null
  br i1 %44, label %45, label %49

45:                                               ; preds = %39
  %46 = load ptr, ptr %3, align 8
  %47 = call ptr @g_string_append(ptr noundef %46, ptr noundef @.str.13)
  %48 = load ptr, ptr %3, align 8
  call void @features_to_columns(ptr noundef %7, ptr noundef %48)
  call void @free_features(ptr noundef %7)
  br label %49

49:                                               ; preds = %45, %39
  %50 = load ptr, ptr %3, align 8
  call void @end_string(ptr noundef %50)
  %51 = load ptr, ptr %3, align 8
  call void @llvm.lifetime.end.p0(i64 8, ptr %7) #8
  call void @llvm.lifetime.end.p0(i64 8, ptr %6) #8
  call void @llvm.lifetime.end.p0(i64 8, ptr %5) #8
  call void @llvm.lifetime.end.p0(i64 8, ptr %4) #8
  call void @llvm.lifetime.end.p0(i64 8, ptr %3) #8
  ret ptr %51
}