; Function Attrs: null_pointer_is_valid sspstrong uwtable
define noundef ptr @get_runtime_version_info(ptr noundef readonly captures(address_is_null) %0) local_unnamed_addr #0 {
  %2 = alloca %struct.sysinfo, align 8
  %3 = alloca ptr, align 8
  %4 = alloca ptr, align 8
  %5 = alloca ptr, align 8
  call void @llvm.lifetime.start.p0(i64 8, ptr nonnull %3) #11
  store ptr null, ptr %3, align 8
  call void @llvm.lifetime.start.p0(i64 8, ptr nonnull %4) #11
  store ptr null, ptr %4, align 8
  call void @llvm.lifetime.start.p0(i64 8, ptr nonnull %5) #11
  store ptr null, ptr %5, align 8
  %6 = tail call ptr @g_string_new(ptr noundef nonnull @.str.17)
  tail call void @get_os_version_info(ptr noundef %6)
  %7 = tail call ptr @g_string_append(ptr noundef %6, ptr noundef nonnull @.str.18)
  tail call void @get_cpu_info(ptr noundef %6)
  %8 = tail call ptr @g_string_append(ptr noundef %6, ptr noundef nonnull @.str.19)
  call void @llvm.lifetime.start.p0(i64 112, ptr nonnull %2) #11
  %9 = call i32 @sysinfo(ptr noundef nonnull %2) #11
  %10 = icmp eq i32 %9, 0
  %11 = getelementptr inbounds nuw i8, ptr %2, i64 32
  %12 = load i64, ptr %11, align 8
  %13 = getelementptr inbounds nuw i8, ptr %2, i64 104
  %14 = load i32, ptr %13, align 8
  %15 = zext i32 %14 to i64
  %16 = mul i64 %12, %15
  %.0.i = select i1 %10, i64 %16, i64 0
  %17 = icmp sgt i64 %.0.i, 0
  br i1 %17, label %18, label %get_mem_info.exit

18:                                               ; preds = %1
  %19 = lshr i64 %.0.i, 20
  call void (ptr, ptr, ...) @g_string_append_printf(ptr noundef %6, ptr noundef nonnull @.str.39, i64 noundef %19)
  br label %get_mem_info.exit

get_mem_info.exit:                                ; preds = %1, %18
  call void @llvm.lifetime.end.p0(i64 112, ptr nonnull %2) #11
  %20 = load i32, ptr @glib_major_version, align 4
  %21 = load i32, ptr @glib_minor_version, align 4
  %22 = load i32, ptr @glib_micro_version, align 4
  call void (ptr, ptr, ...) @g_string_append_printf(ptr noundef %6, ptr noundef nonnull @.str.20, i32 noundef %20, i32 noundef %21, i32 noundef %22)
  %23 = call ptr @setlocale(i32 noundef 0, ptr noundef null) #11
  %.not = icmp eq ptr %23, null
  br i1 %.not, label %25, label %24

24:                                               ; preds = %get_mem_info.exit
  call void (ptr, ptr, ...) @g_string_append_printf(ptr noundef %6, ptr noundef nonnull @.str.21, ptr noundef nonnull %23)
  br label %25

25:                                               ; preds = %24, %get_mem_info.exit
  %26 = tail call i32 @g_module_supported() #12
  %.not19 = icmp eq i32 %26, 0
  br i1 %.not19, label %29, label %27

27:                                               ; preds = %25
  %28 = call i32 @plugins_get_count()
  call void (ptr, ptr, ...) @g_string_append_printf(ptr noundef %6, ptr noundef nonnull @.str.22, i32 noundef %28)
  br label %31

29:                                               ; preds = %25
  %30 = call ptr @g_string_append(ptr noundef %6, ptr noundef nonnull @.str.23)
  br label %31

31:                                               ; preds = %29, %27
  %.not20 = icmp eq ptr %0, null
  br i1 %.not20, label %33, label %32

32:                                               ; preds = %31
  call void %0(ptr noundef nonnull %3)
  br label %33

33:                                               ; preds = %32, %31
  call void @sort_features(ptr noundef nonnull %3)
  call void @separate_features(ptr noundef nonnull %3, ptr noundef nonnull %4, ptr noundef nonnull %5)
  call void @free_features(ptr noundef nonnull %3)
  %34 = call ptr @g_string_append(ptr noundef %6, ptr noundef nonnull @.str.12)
  call fastcc void @features_to_columns(ptr noundef nonnull %4, ptr noundef %6)
  call void @free_features(ptr noundef nonnull %4)
  %35 = load ptr, ptr %5, align 8
  %.not21 = icmp eq ptr %35, null
  br i1 %.not21, label %38, label %36

36:                                               ; preds = %33
  %37 = call ptr @g_string_append(ptr noundef %6, ptr noundef nonnull @.str.13)
  call fastcc void @features_to_columns(ptr noundef nonnull %5, ptr noundef %6)
  call void @free_features(ptr noundef nonnull %5)
  br label %38

38:                                               ; preds = %36, %33
  %39 = getelementptr inbounds nuw i8, ptr %6, i64 8
  %40 = load i64, ptr %39, align 8
  %41 = icmp eq i64 %40, 0
  br i1 %41, label %47, label %42

42:                                               ; preds = %38
  %43 = load ptr, ptr %6, align 8
  %44 = getelementptr i8, ptr %43, i64 %40
  %45 = getelementptr i8, ptr %44, i64 -1
  %46 = load i8, ptr %45, align 1
  %.not.i = icmp eq i8 %46, 10
  br i1 %.not.i, label %49, label %47

47:                                               ; preds = %42, %38
  %48 = call ptr @g_string_append(ptr noundef %6, ptr noundef nonnull @.str.11)
  %.pre.i = load ptr, ptr %6, align 8
  br label %49

49:                                               ; preds = %47, %42
  %50 = phi ptr [ %.pre.i, %47 ], [ %43, %42 ]
  %51 = load i8, ptr %50, align 1
  %.not2026.i = icmp eq i8 %51, 0
  br i1 %.not2026.i, label %end_string.exit, label %.lr.ph28.i

.lr.ph28.i:                                       ; preds = %49, %.critedge.thread.i
  %.01827.i = phi ptr [ %64, %.critedge.thread.i ], [ %50, %49 ]
  %52 = call ptr @strchr(ptr noundef %.01827.i, i32 noundef 10) #10
  %53 = ptrtoint ptr %52 to i64
  %54 = ptrtoint ptr %.01827.i to i64
  %55 = sub i64 %53, %54
  %56 = icmp sgt i64 %55, 80
  br i1 %56, label %57, label %.critedge.thread.i

57:                                               ; preds = %.lr.ph28.i
  %58 = getelementptr i8, ptr %.01827.i, i64 80
  %59 = icmp ugt ptr %58, %.01827.i
  br i1 %59, label %.lr.ph.i, label %.critedge.thread31.i

.lr.ph.i:                                         ; preds = %57, %61
  %.123.i = phi ptr [ %62, %61 ], [ %58, %57 ]
  %60 = load i8, ptr %.123.i, align 1
  %.not21.i = icmp eq i8 %60, 32
  br i1 %.not21.i, label %.critedge.thread31.i, label %61

61:                                               ; preds = %.lr.ph.i
  %62 = getelementptr i8, ptr %.123.i, i64 -1
  %63 = icmp ugt ptr %62, %.01827.i
  br i1 %63, label %.lr.ph.i, label %.critedge.thread.i, !llvm.loop !6

.critedge.thread31.i:                             ; preds = %.lr.ph.i, %57
  %.1.lcssa34.i = phi ptr [ %58, %57 ], [ %.123.i, %.lr.ph.i ]
  store i8 10, ptr %.1.lcssa34.i, align 1
  br label %.critedge.thread.i

.critedge.thread.i:                               ; preds = %61, %.critedge.thread31.i, %.lr.ph28.i
  %.0.i22 = phi ptr [ %.1.lcssa34.i, %.critedge.thread31.i ], [ %52, %.lr.ph28.i ], [ %.01827.i, %61 ]
  %64 = getelementptr i8, ptr %.0.i22, i64 1
  %65 = load i8, ptr %64, align 1
  %.not20.i = icmp eq i8 %65, 0
  br i1 %.not20.i, label %end_string.exit, label %.lr.ph28.i, !llvm.loop !8

end_string.exit:                                  ; preds = %.critedge.thread.i, %49
  call void @llvm.lifetime.end.p0(i64 8, ptr nonnull %5) #11
  call void @llvm.lifetime.end.p0(i64 8, ptr nonnull %4) #11
  call void @llvm.lifetime.end.p0(i64 8, ptr nonnull %3) #11
  ret ptr %6
}